; Function Attrs: mustprogress uwtable
define void @_ZN7rocksdb31TEST_SetBackupMetaSchemaOptionsEPNS_12BackupEngineERKNS_28TEST_BackupMetaSchemaOptionsE(ptr nocapture noundef %engine, ptr noundef nonnull align 8 dereferenceable(184) %options) local_unnamed_addr #3 personality ptr @__gxx_personality_v0 {
entry:
  %call.i = tail call noalias noundef nonnull dereferenceable(184) ptr @_Znwm(i64 noundef 184) #34
  invoke void @_ZN7rocksdb28TEST_BackupMetaSchemaOptionsC2ERKS0_(ptr noundef nonnull align 8 dereferenceable(184) %call.i, ptr noundef nonnull align 8 dereferenceable(184) %options)
          to label %invoke.cont.i unwind label %lpad.i

invoke.cont.i:                                    ; preds = %entry
  %schema_test_options_.i = getelementptr inbounds i8, ptr %engine, i64 888
  %0 = load ptr, ptr %schema_test_options_.i, align 8
  store ptr %call.i, ptr %schema_test_options_.i, align 8
  %tobool.not.i.i.i = icmp eq ptr %0, null
  br i1 %tobool.not.i.i.i, label %_ZN7rocksdb12_GLOBAL__N_126BackupEngineImplThreadSafe31TEST_SetBackupMetaSchemaOptionsERKNS_28TEST_BackupMetaSchemaOptionsE.exit, label %_ZNKSt14default_deleteIN7rocksdb28TEST_BackupMetaSchemaOptionsEEclEPS1_.exit.i.i.i

_ZNKSt14default_deleteIN7rocksdb28TEST_BackupMetaSchemaOptionsEEclEPS1_.exit.i.i.i: ; preds = %invoke.cont.i
  tail call void @_ZN7rocksdb28TEST_BackupMetaSchemaOptionsD2Ev(ptr noundef nonnull align 8 dereferenceable(184) %0) #33
  tail call void @_ZdlPv(ptr noundef nonnull %0) #31
  br label %_ZN7rocksdb12_GLOBAL__N_126BackupEngineImplThreadSafe31TEST_SetBackupMetaSchemaOptionsERKNS_28TEST_BackupMetaSchemaOptionsE.exit

lpad.i:                                           ; preds = %entry
  %1 = landingpad { ptr, i32 }
          cleanup
  tail call void @_ZdlPv(ptr noundef nonnull %call.i) #31
  resume { ptr, i32 } %1

_ZN7rocksdb12_GLOBAL__N_126BackupEngineImplThreadSafe31TEST_SetBackupMetaSchemaOptionsERKNS_28TEST_BackupMetaSchemaOptionsE.exit: ; preds = %invoke.cont.i, %_ZNKSt14default_deleteIN7rocksdb28TEST_BackupMetaSchemaOptionsEEclEPS1_.exit.i.i.i
  ret void
}